target datalayout = "e-m:e-p270:32:32-p271:32:32-p272:64:64-i64:64-i128:128-f80:128-n8:16:32:64-S128"
target triple = "x86_64-pc-linux-gnu"

%struct.t_bin = type { i32, i32, ptr }

; Function Attrs: mustprogress uwtable
define void @_Z7sum_binP5t_binPK9t_commrec(ptr noundef %0, ptr noundef %1) #0 {
  %3 = alloca ptr, align 8
  %4 = alloca ptr, align 8
  %5 = alloca i32, align 4
  store ptr %0, ptr %3, align 8
  store ptr %1, ptr %4, align 8
  %6 = load ptr, ptr %3, align 8
  %7 = getelementptr inbounds %struct.t_bin, ptr %6, i32 0, i32 0
  %8 = load i32, ptr %7, align 8
  store i32 %8, ptr %5, align 4
  br label %9

9:                                                ; preds = %22, %2
  %10 = load i32, ptr %5, align 4
  %11 = load ptr, ptr %3, align 8
  %12 = getelementptr inbounds %struct.t_bin, ptr %11, i32 0, i32 1
  %13 = load i32, ptr %12, align 4
  %14 = icmp slt i32 %10, %13
  br i1 %14, label %15, label %25

15:                                               ; preds = %9
  %16 = load ptr, ptr %3, align 8
  %17 = getelementptr inbounds %struct.t_bin, ptr %16, i32 0, i32 2
  %18 = load ptr, ptr %17, align 8
  %19 = load i32, ptr %5, align 4
  %20 = sext i32 %19 to i64
  %21 = getelementptr inbounds double, ptr %18, i64 %20
  store double 0.000000e+00, ptr %21, align 8
  br label %22

22:                                               ; preds = %15
  %23 = load i32, ptr %5, align 4
  %24 = add nsw i32 %23, 1
  store i32 %24, ptr %5, align 4
  br label %9, !llvm.loop !8

25:                                               ; preds = %9
  %26 = load ptr, ptr %3, align 8
  %27 = getelementptr inbounds %struct.t_bin, ptr %26, i32 0, i32 1
  %28 = load i32, ptr %27, align 4
  %29 = sext i32 %28 to i64
  %30 = load ptr, ptr %3, align 8
  %31 = getelementptr inbounds %struct.t_bin, ptr %30, i32 0, i32 2
  %32 = load ptr, ptr %31, align 8
  %33 = load ptr, ptr %4, align 8
  call void @_Z8gmx_sumdmPdPK9t_commrec(i64 noundef %29, ptr noundef %32, ptr noundef %33)
  ret void
}