; Function Attrs: mustprogress uwtable
define void @_Z7sum_binP5t_binPK9t_commrec(ptr nocapture noundef readonly %0, ptr noundef %1) local_unnamed_addr #0 {
  %3 = load i32, ptr %0, align 8
  %4 = getelementptr inbounds i8, ptr %0, i64 4
  %5 = load i32, ptr %4, align 4
  %6 = icmp slt i32 %3, %5
  br i1 %6, label %.lr.ph, label %.._crit_edge_crit_edge

.._crit_edge_crit_edge:                           ; preds = %2
  %.pre = sext i32 %5 to i64
  br label %._crit_edge

.lr.ph:                                           ; preds = %2
  %7 = getelementptr inbounds i8, ptr %0, i64 8
  %8 = sext i32 %3 to i64
  br label %9

9:                                                ; preds = %.lr.ph, %9
  %indvars.iv = phi i64 [ %8, %.lr.ph ], [ %indvars.iv.next, %9 ]
  %10 = load ptr, ptr %7, align 8
  %11 = getelementptr inbounds double, ptr %10, i64 %indvars.iv
  store double 0.000000e+00, ptr %11, align 8
  %indvars.iv.next = add nsw i64 %indvars.iv, 1
  %12 = load i32, ptr %4, align 4
  %13 = sext i32 %12 to i64
  %14 = icmp slt i64 %indvars.iv.next, %13
  br i1 %14, label %9, label %._crit_edge, !llvm.loop !8

._crit_edge:                                      ; preds = %9, %.._crit_edge_crit_edge
  %.pre-phi = phi i64 [ %.pre, %.._crit_edge_crit_edge ], [ %13, %9 ]
  %15 = getelementptr inbounds i8, ptr %0, i64 8
  %16 = load ptr, ptr %15, align 8
  tail call void @_Z8gmx_sumdmPdPK9t_commrec(i64 noundef %.pre-phi, ptr noundef %16, ptr noundef %1)
  ret void
}